target datalayout = "e-m:e-p270:32:32-p271:32:32-p272:64:64-i64:64-i128:128-f80:128-n8:16:32:64-S128"
target triple = "x86_64-pc-linux-gnu"

%struct.AVFilterContext = type { ptr, ptr, ptr, ptr, ptr, i32, ptr, ptr, i32, ptr, ptr, i32, i32, ptr, ptr, ptr, ptr, i32, ptr, i32, i32 }
%struct.DeshakeContext = type { ptr, [129 x [129 x i32]], ptr, i32, ptr, i32, i32, i32, i32, i32, i32, ptr, %struct.Transform, i32, ptr, %struct.Transform, i32, i32, i32, i32, ptr, i32, ptr }
%struct.Transform = type { %struct.MotionVector, double, double }
%struct.MotionVector = type { double, double }
%struct.AVFilterLink = type { ptr, ptr, ptr, ptr, i32, i32, i32, i32, %struct.AVRational, i32, i32, i32, %struct.AVChannelLayout, %struct.AVRational, ptr, i32, %struct.AVFilterFormatsConfig, %struct.AVFilterFormatsConfig }
%struct.AVChannelLayout = type { i32, i32, %union.anon.1, ptr }
%union.anon.1 = type { i64 }
%struct.AVRational = type { i32, i32 }
%struct.AVFilterFormatsConfig = type { ptr, ptr, ptr, ptr, ptr }

; Function Attrs: nounwind uwtable
define internal i32 @config_props(ptr noundef %0) #1 {
  %2 = alloca ptr, align 8
  %3 = alloca ptr, align 8
  store ptr %0, ptr %2, align 8, !tbaa !45
  call void @llvm.lifetime.start.p0(i64 8, ptr %3) #10
  %4 = load ptr, ptr %2, align 8, !tbaa !45
  %5 = getelementptr inbounds nuw %struct.AVFilterLink, ptr %4, i32 0, i32 2
  %6 = load ptr, ptr %5, align 8, !tbaa !48
  %7 = getelementptr inbounds nuw %struct.AVFilterContext, ptr %6, i32 0, i32 9
  %8 = load ptr, ptr %7, align 8, !tbaa !9
  store ptr %8, ptr %3, align 8, !tbaa !22
  %9 = load ptr, ptr %3, align 8, !tbaa !22
  %10 = getelementptr inbounds nuw %struct.DeshakeContext, ptr %9, i32 0, i32 4
  store ptr null, ptr %10, align 8, !tbaa !71
  %11 = load ptr, ptr %3, align 8, !tbaa !22
  %12 = getelementptr inbounds nuw %struct.DeshakeContext, ptr %11, i32 0, i32 12
  %13 = getelementptr inbounds nuw %struct.Transform, ptr %12, i32 0, i32 0
  %14 = getelementptr inbounds nuw %struct.MotionVector, ptr %13, i32 0, i32 0
  store double 0.000000e+00, ptr %14, align 8, !tbaa !80
  %15 = load ptr, ptr %3, align 8, !tbaa !22
  %16 = getelementptr inbounds nuw %struct.DeshakeContext, ptr %15, i32 0, i32 12
  %17 = getelementptr inbounds nuw %struct.Transform, ptr %16, i32 0, i32 0
  %18 = getelementptr inbounds nuw %struct.MotionVector, ptr %17, i32 0, i32 1
  store double 0.000000e+00, ptr %18, align 8, !tbaa !81
  %19 = load ptr, ptr %3, align 8, !tbaa !22
  %20 = getelementptr inbounds nuw %struct.DeshakeContext, ptr %19, i32 0, i32 12
  %21 = getelementptr inbounds nuw %struct.Transform, ptr %20, i32 0, i32 1
  store double 0.000000e+00, ptr %21, align 8, !tbaa !82
  %22 = load ptr, ptr %3, align 8, !tbaa !22
  %23 = getelementptr inbounds nuw %struct.DeshakeContext, ptr %22, i32 0, i32 12
  %24 = getelementptr inbounds nuw %struct.Transform, ptr %23, i32 0, i32 2
  store double 0.000000e+00, ptr %24, align 8, !tbaa !83
  call void @llvm.lifetime.end.p0(i64 8, ptr %3) #10
  ret i32 0
}